target datalayout = "e-m:e-p270:32:32-p271:32:32-p272:64:64-i64:64-i128:128-f80:128-n8:16:32:64-S128"
target triple = "x86_64-pc-linux-gnu"

%"struct.vcpkg::DllMetadata" = type { %"struct.vcpkg::CoffFileHeader", i32, %"struct.vcpkg::CommonPEOptionalHeaders", %union.anon, i32, %union.anon.0, %"class.std::vector", %"class.std::vector.1" }
%"struct.vcpkg::CoffFileHeader" = type { i16, i16, i32, i32, i32, i16, i16 }
%"struct.vcpkg::CommonPEOptionalHeaders" = type { i16, i8, i8, i32, i32, i32, i32, i32 }
%union.anon = type { %"struct.vcpkg::UniquePEPlusOptionalHeaders" }
%"struct.vcpkg::UniquePEPlusOptionalHeaders" = type { i64, i32, i32, i16, i16, i16, i16, i16, i16, i32, i32, i32, i32, i16, i16, i64, i64, i64, i64, i32, i32 }
%union.anon.0 = type { %"struct.vcpkg::ImageLoadConfigDirectory64" }
%"struct.vcpkg::ImageLoadConfigDirectory64" = type { i32, i32, i16, i16, i32, i32, i32, i64, i64, i64, i64, i64, i64, i32, i16, i16, i64, i64, i64, i64, i64, i64, i64, i64, i32, %"struct.vcpkg::ImageLoadConfigCodeIntegrity", i64, i64, i64, i64, i64, i64 }
%"struct.vcpkg::ImageLoadConfigCodeIntegrity" = type { i32, i32, i16, i16 }
%"class.std::vector" = type { %"struct.std::_Vector_base" }
%"struct.std::_Vector_base" = type { %"struct.std::_Vector_base<vcpkg::ImageDataDirectory, std::allocator<vcpkg::ImageDataDirectory>>::_Vector_impl" }
%"struct.std::_Vector_base<vcpkg::ImageDataDirectory, std::allocator<vcpkg::ImageDataDirectory>>::_Vector_impl" = type { %"struct.std::_Vector_base<vcpkg::ImageDataDirectory, std::allocator<vcpkg::ImageDataDirectory>>::_Vector_impl_data" }
%"struct.std::_Vector_base<vcpkg::ImageDataDirectory, std::allocator<vcpkg::ImageDataDirectory>>::_Vector_impl_data" = type { ptr, ptr, ptr }
%"class.std::vector.1" = type { %"struct.std::_Vector_base.2" }
%"struct.std::_Vector_base.2" = type { %"struct.std::_Vector_base<vcpkg::SectionTableHeader, std::allocator<vcpkg::SectionTableHeader>>::_Vector_impl" }
%"struct.std::_Vector_base<vcpkg::SectionTableHeader, std::allocator<vcpkg::SectionTableHeader>>::_Vector_impl" = type { %"struct.std::_Vector_base<vcpkg::SectionTableHeader, std::allocator<vcpkg::SectionTableHeader>>::_Vector_impl_data" }
%"struct.std::_Vector_base<vcpkg::SectionTableHeader, std::allocator<vcpkg::SectionTableHeader>>::_Vector_impl_data" = type { ptr, ptr, ptr }
%"struct.vcpkg::ImageDataDirectory" = type { i32, i32 }

; Function Attrs: mustprogress nounwind uwtable
define linkonce_odr dso_local noundef ptr @_ZNKSt6vectorIN5vcpkg18ImageDataDirectoryESaIS1_EE11_M_data_ptrIS1_EEPT_S6_(ptr noundef nonnull align 8 dereferenceable(24) %0, ptr noundef %1) #0 comdat align 2 {
  %3 = alloca ptr, align 8
  %4 = alloca ptr, align 8
  store ptr %0, ptr %3, align 8, !tbaa !37
  store ptr %1, ptr %4, align 8, !tbaa !34
  %5 = load ptr, ptr %4, align 8, !tbaa !34
  ret ptr %5
}

; Function Attrs: mustprogress nounwind uwtable
define linkonce_odr dso_local noundef ptr @_ZNKSt6vectorIN5vcpkg18ImageDataDirectoryESaIS1_EE4dataEv(ptr noundef nonnull align 8 dereferenceable(24) %0) #0 comdat align 2 {
  %2 = alloca ptr, align 8
  store ptr %0, ptr %2, align 8, !tbaa !37
  %3 = load ptr, ptr %2, align 8
  %4 = getelementptr inbounds nuw %"struct.std::_Vector_base", ptr %3, i32 0, i32 0
  %5 = getelementptr inbounds nuw %"struct.std::_Vector_base<vcpkg::ImageDataDirectory, std::allocator<vcpkg::ImageDataDirectory>>::_Vector_impl_data", ptr %4, i32 0, i32 0
  %6 = load ptr, ptr %5, align 8, !tbaa !40
  %7 = call noundef ptr @_ZNKSt6vectorIN5vcpkg18ImageDataDirectoryESaIS1_EE11_M_data_ptrIS1_EEPT_S6_(ptr noundef nonnull align 8 dereferenceable(24) %3, ptr noundef %6) #19
  ret ptr %7
}

; Function Attrs: mustprogress nounwind uwtable
define linkonce_odr dso_local noundef i64 @_ZNKSt6vectorIN5vcpkg18ImageDataDirectoryESaIS1_EE4sizeEv(ptr noundef nonnull align 8 dereferenceable(24) %0) #0 comdat align 2 {
  %2 = alloca ptr, align 8
  store ptr %0, ptr %2, align 8, !tbaa !37
  %3 = load ptr, ptr %2, align 8
  %4 = getelementptr inbounds nuw %"struct.std::_Vector_base", ptr %3, i32 0, i32 0
  %5 = getelementptr inbounds nuw %"struct.std::_Vector_base<vcpkg::ImageDataDirectory, std::allocator<vcpkg::ImageDataDirectory>>::_Vector_impl_data", ptr %4, i32 0, i32 1
  %6 = load ptr, ptr %5, align 8, !tbaa !39
  %7 = getelementptr inbounds nuw %"struct.std::_Vector_base", ptr %3, i32 0, i32 0
  %8 = getelementptr inbounds nuw %"struct.std::_Vector_base<vcpkg::ImageDataDirectory, std::allocator<vcpkg::ImageDataDirectory>>::_Vector_impl_data", ptr %7, i32 0, i32 0
  %9 = load ptr, ptr %8, align 8, !tbaa !40
  %10 = ptrtoint ptr %6 to i64
  %11 = ptrtoint ptr %9 to i64
  %12 = sub i64 %10, %11
  %13 = sdiv exact i64 %12, 8
  ret i64 %13
}

; Function Attrs: mustprogress nounwind uwtable
define dso_local noundef ptr @_ZNK5vcpkg11DllMetadata28try_get_image_data_directoryEm(ptr noundef nonnull align 8 dereferenceable(400) %0, i64 noundef %1) #0 align 2 {
  %3 = alloca ptr, align 8
  %4 = alloca ptr, align 8
  %5 = alloca i64, align 8
  %6 = alloca ptr, align 8
  %7 = alloca i32, align 4
  store ptr %0, ptr %4, align 8, !tbaa !4
  store i64 %1, ptr %5, align 8, !tbaa !32
  %8 = load ptr, ptr %4, align 8
  %9 = getelementptr inbounds nuw %"struct.vcpkg::DllMetadata", ptr %8, i32 0, i32 6
  %10 = call noundef i64 @_ZNKSt6vectorIN5vcpkg18ImageDataDirectoryESaIS1_EE4sizeEv(ptr noundef nonnull align 8 dereferenceable(24) %9) #19
  %11 = load i64, ptr %5, align 8, !tbaa !32
  %12 = icmp ugt i64 %10, %11
  br i1 %12, label %13, label %28

13:                                               ; preds = %2
  call void @llvm.lifetime.start.p0(i64 8, ptr %6) #19
  %14 = getelementptr inbounds nuw %"struct.vcpkg::DllMetadata", ptr %8, i32 0, i32 6
  %15 = call noundef ptr @_ZNKSt6vectorIN5vcpkg18ImageDataDirectoryESaIS1_EE4dataEv(ptr noundef nonnull align 8 dereferenceable(24) %14) #19
  %16 = load i64, ptr %5, align 8, !tbaa !32
  %17 = getelementptr inbounds nuw %"struct.vcpkg::ImageDataDirectory", ptr %15, i64 %16
  store ptr %17, ptr %6, align 8, !tbaa !34
  %18 = load ptr, ptr %6, align 8, !tbaa !34
  %19 = getelementptr inbounds nuw %"struct.vcpkg::ImageDataDirectory", ptr %18, i32 0, i32 0
  %20 = load i32, ptr %19, align 4, !tbaa !35
  %21 = icmp ne i32 %20, 0
  br i1 %21, label %22, label %24

22:                                               ; preds = %13
  %23 = load ptr, ptr %6, align 8, !tbaa !34
  store ptr %23, ptr %3, align 8
  store i32 1, ptr %7, align 4
  br label %25

24:                                               ; preds = %13
  store i32 0, ptr %7, align 4
  br label %25

25:                                               ; preds = %24, %22
  call void @llvm.lifetime.end.p0(i64 8, ptr %6) #19
  %26 = load i32, ptr %7, align 4
  switch i32 %26, label %31 [
    i32 0, label %27
    i32 1, label %29
  ]

27:                                               ; preds = %25
  br label %28

28:                                               ; preds = %27, %2
  store ptr null, ptr %3, align 8
  br label %29

29:                                               ; preds = %28, %25
  %30 = load ptr, ptr %3, align 8
  ret ptr %30

31:                                               ; preds = %25
  unreachable
}