; Function Attrs: mustprogress nofree norecurse nosync nounwind willreturn memory(read, inaccessiblemem: none) uwtable
define dso_local noundef ptr @_ZNK5vcpkg11DllMetadata28try_get_image_data_directoryEm(ptr noundef nonnull readonly align 8 captures(none) dereferenceable(400) %0, i64 noundef %1) local_unnamed_addr #5 align 2 {
  %3 = getelementptr inbounds nuw i8, ptr %0, i64 352
  %4 = getelementptr inbounds nuw i8, ptr %0, i64 360
  %5 = load ptr, ptr %4, align 8, !tbaa !30
  %6 = load ptr, ptr %3, align 8, !tbaa !31
  %7 = ptrtoint ptr %5 to i64
  %8 = ptrtoint ptr %6 to i64
  %9 = sub i64 %7, %8
  %10 = ashr exact i64 %9, 3
  %11 = icmp ugt i64 %10, %1
  br i1 %11, label %12, label %15

12:                                               ; preds = %2
  %13 = getelementptr inbounds nuw %"struct.vcpkg::ImageDataDirectory", ptr %6, i64 %1
  %14 = load i32, ptr %13, align 4, !tbaa !32
  %.not.not = icmp eq i32 %14, 0
  br i1 %.not.not, label %15, label %16

15:                                               ; preds = %12, %2
  br label %16

16:                                               ; preds = %12, %15
  %.1 = phi ptr [ %13, %12 ], [ null, %15 ]
  ret ptr %.1
}